target datalayout = "e-m:e-p270:32:32-p271:32:32-p272:64:64-i64:64-i128:128-f80:128-n8:16:32:64-S128"
target triple = "x86_64-pc-linux-gnu"

; Function Attrs: mustprogress nounwind uwtable
define void @_Z15reduce_contractRiiS_(ptr noundef nonnull align 4 dereferenceable(4) %0, i32 noundef %1, ptr noundef nonnull align 4 dereferenceable(4) %2) #3 {
  %4 = alloca ptr, align 8
  %5 = alloca i32, align 4
  %6 = alloca ptr, align 8
  %7 = alloca i32, align 4
  %8 = alloca i32, align 4
  %9 = alloca i32, align 4
  store ptr %0, ptr %4, align 8
  store i32 %1, ptr %5, align 4
  store ptr %2, ptr %6, align 8
  %10 = load i32, ptr %5, align 4
  %11 = icmp sge i32 %10, -1
  br i1 %11, label %12, label %14

12:                                               ; preds = %3
  %13 = load ptr, ptr %6, align 8
  store i32 0, ptr %13, align 4
  br label %43

14:                                               ; preds = %3
  %15 = load ptr, ptr %4, align 8
  %16 = load i32, ptr %15, align 4
  %17 = sext i32 %16 to i64
  %18 = getelementptr inbounds [36 x i32], ptr @FLOOR_CONTRACT, i64 0, i64 %17
  %19 = load i32, ptr %18, align 4
  store i32 %19, ptr %7, align 4
  %20 = load ptr, ptr %4, align 8
  %21 = load i32, ptr %20, align 4
  %22 = load i32, ptr %5, align 4
  %23 = add nsw i32 %22, 1
  %24 = mul nsw i32 5, %23
  %25 = add nsw i32 %21, %24
  store i32 %25, ptr %8, align 4
  %26 = load i32, ptr %8, align 4
  %27 = load i32, ptr %7, align 4
  %28 = icmp sgt i32 %26, %27
  br i1 %28, label %29, label %31

29:                                               ; preds = %14
  %30 = load i32, ptr %8, align 4
  br label %33

31:                                               ; preds = %14
  %32 = load i32, ptr %7, align 4
  br label %33

33:                                               ; preds = %31, %29
  %34 = phi i32 [ %30, %29 ], [ %32, %31 ]
  store i32 %34, ptr %9, align 4
  %35 = load ptr, ptr %4, align 8
  %36 = load i32, ptr %35, align 4
  %37 = load i32, ptr %9, align 4
  %38 = sub nsw i32 %36, %37
  %39 = sdiv i32 %38, 5
  %40 = load ptr, ptr %6, align 8
  store i32 %39, ptr %40, align 4
  %41 = load i32, ptr %9, align 4
  %42 = load ptr, ptr %4, align 8
  store i32 %41, ptr %42, align 4
  br label %43

43:                                               ; preds = %33, %12
  ret void
}