; Function Attrs: mustprogress nofree norecurse nosync nounwind willreturn memory(read, argmem: readwrite, inaccessiblemem: none) uwtable
define void @_Z15reduce_contractRiiS_(ptr noundef nonnull align 4 captures(none) dereferenceable(4) %0, i32 noundef %1, ptr noundef nonnull writeonly align 4 captures(none) dereferenceable(4) initializes((0, 4)) %2) local_unnamed_addr #7 {
  %4 = icmp sgt i32 %1, -2
  br i1 %4, label %5, label %6

5:                                                ; preds = %3
  store i32 0, ptr %2, align 4
  br label %17

6:                                                ; preds = %3
  %7 = load i32, ptr %0, align 4
  %8 = sext i32 %7 to i64
  %9 = getelementptr inbounds [36 x i32], ptr @FLOOR_CONTRACT, i64 0, i64 %8
  %10 = load i32, ptr %9, align 4
  %11 = mul i32 %1, 5
  %12 = add i32 %11, 5
  %13 = add nsw i32 %12, %7
  %14 = tail call i32 @llvm.smax.i32(i32 %13, i32 %10)
  %15 = sub nsw i32 %7, %14
  %16 = sdiv i32 %15, 5
  store i32 %16, ptr %2, align 4
  store i32 %14, ptr %0, align 4
  br label %17

17:                                               ; preds = %6, %5
  ret void
}